target datalayout = "e-m:e-p270:32:32-p271:32:32-p272:64:64-i64:64-i128:128-f80:128-n8:16:32:64-S128"
target triple = "x86_64-pc-linux-gnu"

@.str.8 = private unnamed_addr constant [29 x i8] c"../openssl/test/sanitytest.c\00", align 1
@.str.27 = private unnamed_addr constant [15 x i8] c"sizeof(int8_t)\00", align 1
@.str.28 = private unnamed_addr constant [2 x i8] c"1\00", align 1
@.str.29 = private unnamed_addr constant [16 x i8] c"sizeof(uint8_t)\00", align 1
@.str.30 = private unnamed_addr constant [16 x i8] c"sizeof(int16_t)\00", align 1
@.str.31 = private unnamed_addr constant [2 x i8] c"2\00", align 1
@.str.32 = private unnamed_addr constant [17 x i8] c"sizeof(uint16_t)\00", align 1
@.str.33 = private unnamed_addr constant [16 x i8] c"sizeof(int32_t)\00", align 1
@.str.34 = private unnamed_addr constant [2 x i8] c"4\00", align 1
@.str.35 = private unnamed_addr constant [17 x i8] c"sizeof(uint32_t)\00", align 1
@.str.36 = private unnamed_addr constant [16 x i8] c"sizeof(int64_t)\00", align 1
@.str.37 = private unnamed_addr constant [2 x i8] c"8\00", align 1
@.str.38 = private unnamed_addr constant [17 x i8] c"sizeof(uint64_t)\00", align 1
@.str.39 = private unnamed_addr constant [17 x i8] c"sizeof(int128_t)\00", align 1
@.str.40 = private unnamed_addr constant [3 x i8] c"16\00", align 1
@.str.41 = private unnamed_addr constant [18 x i8] c"sizeof(uint128_t)\00", align 1
@.str.42 = private unnamed_addr constant [13 x i8] c"sizeof(char)\00", align 1
@.str.43 = private unnamed_addr constant [22 x i8] c"sizeof(unsigned char)\00", align 1
@.str.44 = private unnamed_addr constant [22 x i8] c"sizeof(long long int)\00", align 1
@.str.45 = private unnamed_addr constant [31 x i8] c"sizeof(unsigned long long int)\00", align 1
@.str.46 = private unnamed_addr constant [22 x i8] c"sizeof(ossl_intmax_t)\00", align 1
@.str.47 = private unnamed_addr constant [23 x i8] c"sizeof(ossl_uintmax_t)\00", align 1
@.str.48 = private unnamed_addr constant [15 x i8] c"sizeof(size_t)\00", align 1

; Function Attrs: nounwind uwtable
define internal i32 @test_sanity_range() #0 {
  %1 = alloca i32, align 4
  %2 = call i32 @test_size_t_eq(ptr noundef @.str.8, i32 noundef 82, ptr noundef @.str.27, ptr noundef @.str.28, i64 noundef 1, i64 noundef 1)
  %3 = icmp ne i32 %2, 0
  br i1 %3, label %4, label %37

4:                                                ; preds = %0
  %5 = call i32 @test_size_t_eq(ptr noundef @.str.8, i32 noundef 83, ptr noundef @.str.29, ptr noundef @.str.28, i64 noundef 1, i64 noundef 1)
  %6 = icmp ne i32 %5, 0
  br i1 %6, label %7, label %37

7:                                                ; preds = %4
  %8 = call i32 @test_size_t_eq(ptr noundef @.str.8, i32 noundef 84, ptr noundef @.str.30, ptr noundef @.str.31, i64 noundef 2, i64 noundef 2)
  %9 = icmp ne i32 %8, 0
  br i1 %9, label %10, label %37

10:                                               ; preds = %7
  %11 = call i32 @test_size_t_eq(ptr noundef @.str.8, i32 noundef 85, ptr noundef @.str.32, ptr noundef @.str.31, i64 noundef 2, i64 noundef 2)
  %12 = icmp ne i32 %11, 0
  br i1 %12, label %13, label %37

13:                                               ; preds = %10
  %14 = call i32 @test_size_t_eq(ptr noundef @.str.8, i32 noundef 86, ptr noundef @.str.33, ptr noundef @.str.34, i64 noundef 4, i64 noundef 4)
  %15 = icmp ne i32 %14, 0
  br i1 %15, label %16, label %37

16:                                               ; preds = %13
  %17 = call i32 @test_size_t_eq(ptr noundef @.str.8, i32 noundef 87, ptr noundef @.str.35, ptr noundef @.str.34, i64 noundef 4, i64 noundef 4)
  %18 = icmp ne i32 %17, 0
  br i1 %18, label %19, label %37

19:                                               ; preds = %16
  %20 = call i32 @test_size_t_eq(ptr noundef @.str.8, i32 noundef 88, ptr noundef @.str.36, ptr noundef @.str.37, i64 noundef 8, i64 noundef 8)
  %21 = icmp ne i32 %20, 0
  br i1 %21, label %22, label %37

22:                                               ; preds = %19
  %23 = call i32 @test_size_t_eq(ptr noundef @.str.8, i32 noundef 89, ptr noundef @.str.38, ptr noundef @.str.37, i64 noundef 8, i64 noundef 8)
  %24 = icmp ne i32 %23, 0
  br i1 %24, label %25, label %37

25:                                               ; preds = %22
  %26 = call i32 @test_size_t_eq(ptr noundef @.str.8, i32 noundef 91, ptr noundef @.str.39, ptr noundef @.str.40, i64 noundef 16, i64 noundef 16)
  %27 = icmp ne i32 %26, 0
  br i1 %27, label %28, label %37

28:                                               ; preds = %25
  %29 = call i32 @test_size_t_eq(ptr noundef @.str.8, i32 noundef 92, ptr noundef @.str.41, ptr noundef @.str.40, i64 noundef 16, i64 noundef 16)
  %30 = icmp ne i32 %29, 0
  br i1 %30, label %31, label %37

31:                                               ; preds = %28
  %32 = call i32 @test_size_t_eq(ptr noundef @.str.8, i32 noundef 94, ptr noundef @.str.42, ptr noundef @.str.28, i64 noundef 1, i64 noundef 1)
  %33 = icmp ne i32 %32, 0
  br i1 %33, label %34, label %37

34:                                               ; preds = %31
  %35 = call i32 @test_size_t_eq(ptr noundef @.str.8, i32 noundef 95, ptr noundef @.str.43, ptr noundef @.str.28, i64 noundef 1, i64 noundef 1)
  %36 = icmp ne i32 %35, 0
  br i1 %36, label %38, label %37

37:                                               ; preds = %34, %31, %28, %25, %22, %19, %16, %13, %10, %7, %4, %0
  store i32 0, ptr %1, align 4
  br label %56

38:                                               ; preds = %34
  %39 = call i32 @test_size_t_ge(ptr noundef @.str.8, i32 noundef 99, ptr noundef @.str.44, ptr noundef @.str.37, i64 noundef 8, i64 noundef 8)
  %40 = icmp ne i32 %39, 0
  br i1 %40, label %41, label %44

41:                                               ; preds = %38
  %42 = call i32 @test_size_t_ge(ptr noundef @.str.8, i32 noundef 100, ptr noundef @.str.45, ptr noundef @.str.37, i64 noundef 8, i64 noundef 8)
  %43 = icmp ne i32 %42, 0
  br i1 %43, label %45, label %44

44:                                               ; preds = %41, %38
  store i32 0, ptr %1, align 4
  br label %56

45:                                               ; preds = %41
  %46 = call i32 @test_size_t_ge(ptr noundef @.str.8, i32 noundef 108, ptr noundef @.str.46, ptr noundef @.str.37, i64 noundef 8, i64 noundef 8)
  %47 = icmp ne i32 %46, 0
  br i1 %47, label %48, label %54

48:                                               ; preds = %45
  %49 = call i32 @test_size_t_ge(ptr noundef @.str.8, i32 noundef 109, ptr noundef @.str.47, ptr noundef @.str.37, i64 noundef 8, i64 noundef 8)
  %50 = icmp ne i32 %49, 0
  br i1 %50, label %51, label %54

51:                                               ; preds = %48
  %52 = call i32 @test_size_t_ge(ptr noundef @.str.8, i32 noundef 110, ptr noundef @.str.47, ptr noundef @.str.48, i64 noundef 8, i64 noundef 8)
  %53 = icmp ne i32 %52, 0
  br i1 %53, label %55, label %54

54:                                               ; preds = %51, %48, %45
  store i32 0, ptr %1, align 4
  br label %56

55:                                               ; preds = %51
  store i32 1, ptr %1, align 4
  br label %56

56:                                               ; preds = %55, %54, %44, %37
  %57 = load i32, ptr %1, align 4
  ret i32 %57
}