; Function Attrs: nounwind uwtable
define internal range(i32 0, 2) i32 @test_sanity_range() #0 {
  %1 = tail call i32 @test_size_t_eq(ptr noundef nonnull @.str.8, i32 noundef 82, ptr noundef nonnull @.str.27, ptr noundef nonnull @.str.28, i64 noundef 1, i64 noundef 1) #4
  %.not = icmp eq i32 %1, 0
  br i1 %.not, label %34, label %2

2:                                                ; preds = %0
  %3 = tail call i32 @test_size_t_eq(ptr noundef nonnull @.str.8, i32 noundef 83, ptr noundef nonnull @.str.29, ptr noundef nonnull @.str.28, i64 noundef 1, i64 noundef 1) #4
  %.not1 = icmp eq i32 %3, 0
  br i1 %.not1, label %34, label %4

4:                                                ; preds = %2
  %5 = tail call i32 @test_size_t_eq(ptr noundef nonnull @.str.8, i32 noundef 84, ptr noundef nonnull @.str.30, ptr noundef nonnull @.str.31, i64 noundef 2, i64 noundef 2) #4
  %.not2 = icmp eq i32 %5, 0
  br i1 %.not2, label %34, label %6

6:                                                ; preds = %4
  %7 = tail call i32 @test_size_t_eq(ptr noundef nonnull @.str.8, i32 noundef 85, ptr noundef nonnull @.str.32, ptr noundef nonnull @.str.31, i64 noundef 2, i64 noundef 2) #4
  %.not3 = icmp eq i32 %7, 0
  br i1 %.not3, label %34, label %8

8:                                                ; preds = %6
  %9 = tail call i32 @test_size_t_eq(ptr noundef nonnull @.str.8, i32 noundef 86, ptr noundef nonnull @.str.33, ptr noundef nonnull @.str.34, i64 noundef 4, i64 noundef 4) #4
  %.not4 = icmp eq i32 %9, 0
  br i1 %.not4, label %34, label %10

10:                                               ; preds = %8
  %11 = tail call i32 @test_size_t_eq(ptr noundef nonnull @.str.8, i32 noundef 87, ptr noundef nonnull @.str.35, ptr noundef nonnull @.str.34, i64 noundef 4, i64 noundef 4) #4
  %.not5 = icmp eq i32 %11, 0
  br i1 %.not5, label %34, label %12

12:                                               ; preds = %10
  %13 = tail call i32 @test_size_t_eq(ptr noundef nonnull @.str.8, i32 noundef 88, ptr noundef nonnull @.str.36, ptr noundef nonnull @.str.37, i64 noundef 8, i64 noundef 8) #4
  %.not6 = icmp eq i32 %13, 0
  br i1 %.not6, label %34, label %14

14:                                               ; preds = %12
  %15 = tail call i32 @test_size_t_eq(ptr noundef nonnull @.str.8, i32 noundef 89, ptr noundef nonnull @.str.38, ptr noundef nonnull @.str.37, i64 noundef 8, i64 noundef 8) #4
  %.not7 = icmp eq i32 %15, 0
  br i1 %.not7, label %34, label %16

16:                                               ; preds = %14
  %17 = tail call i32 @test_size_t_eq(ptr noundef nonnull @.str.8, i32 noundef 91, ptr noundef nonnull @.str.39, ptr noundef nonnull @.str.40, i64 noundef 16, i64 noundef 16) #4
  %.not8 = icmp eq i32 %17, 0
  br i1 %.not8, label %34, label %18

18:                                               ; preds = %16
  %19 = tail call i32 @test_size_t_eq(ptr noundef nonnull @.str.8, i32 noundef 92, ptr noundef nonnull @.str.41, ptr noundef nonnull @.str.40, i64 noundef 16, i64 noundef 16) #4
  %.not9 = icmp eq i32 %19, 0
  br i1 %.not9, label %34, label %20

20:                                               ; preds = %18
  %21 = tail call i32 @test_size_t_eq(ptr noundef nonnull @.str.8, i32 noundef 94, ptr noundef nonnull @.str.42, ptr noundef nonnull @.str.28, i64 noundef 1, i64 noundef 1) #4
  %.not10 = icmp eq i32 %21, 0
  br i1 %.not10, label %34, label %22

22:                                               ; preds = %20
  %23 = tail call i32 @test_size_t_eq(ptr noundef nonnull @.str.8, i32 noundef 95, ptr noundef nonnull @.str.43, ptr noundef nonnull @.str.28, i64 noundef 1, i64 noundef 1) #4
  %.not11 = icmp eq i32 %23, 0
  br i1 %.not11, label %34, label %24

24:                                               ; preds = %22
  %25 = tail call i32 @test_size_t_ge(ptr noundef nonnull @.str.8, i32 noundef 99, ptr noundef nonnull @.str.44, ptr noundef nonnull @.str.37, i64 noundef 8, i64 noundef 8) #4
  %.not12 = icmp eq i32 %25, 0
  br i1 %.not12, label %34, label %26

26:                                               ; preds = %24
  %27 = tail call i32 @test_size_t_ge(ptr noundef nonnull @.str.8, i32 noundef 100, ptr noundef nonnull @.str.45, ptr noundef nonnull @.str.37, i64 noundef 8, i64 noundef 8) #4
  %.not13 = icmp eq i32 %27, 0
  br i1 %.not13, label %34, label %28

28:                                               ; preds = %26
  %29 = tail call i32 @test_size_t_ge(ptr noundef nonnull @.str.8, i32 noundef 108, ptr noundef nonnull @.str.46, ptr noundef nonnull @.str.37, i64 noundef 8, i64 noundef 8) #4
  %.not14 = icmp eq i32 %29, 0
  br i1 %.not14, label %34, label %30

30:                                               ; preds = %28
  %31 = tail call i32 @test_size_t_ge(ptr noundef nonnull @.str.8, i32 noundef 109, ptr noundef nonnull @.str.47, ptr noundef nonnull @.str.37, i64 noundef 8, i64 noundef 8) #4
  %.not15 = icmp eq i32 %31, 0
  br i1 %.not15, label %34, label %32

32:                                               ; preds = %30
  %33 = tail call i32 @test_size_t_ge(ptr noundef nonnull @.str.8, i32 noundef 110, ptr noundef nonnull @.str.47, ptr noundef nonnull @.str.48, i64 noundef 8, i64 noundef 8) #4
  %.not16 = icmp ne i32 %33, 0
  %spec.select = zext i1 %.not16 to i32
  br label %34

34:                                               ; preds = %32, %28, %30, %24, %26, %0, %2, %4, %6, %8, %10, %12, %14, %16, %18, %20, %22
  %.0 = phi i32 [ 0, %22 ], [ 0, %20 ], [ 0, %18 ], [ 0, %16 ], [ 0, %14 ], [ 0, %12 ], [ 0, %10 ], [ 0, %8 ], [ 0, %6 ], [ 0, %4 ], [ 0, %2 ], [ 0, %0 ], [ 0, %26 ], [ 0, %24 ], [ 0, %30 ], [ 0, %28 ], [ %spec.select, %32 ]
  ret i32 %.0
}